target datalayout = "e-m:e-p270:32:32-p271:32:32-p272:64:64-i64:64-i128:128-f80:128-n8:16:32:64-S128"
target triple = "x86_64-pc-linux-gnu"

%struct.evmc_vm = type { i32, ptr, ptr, ptr, ptr, ptr, ptr }

@.str.6 = private unnamed_addr constant [34 x i8] c"creating EVMC VM of %s has failed\00", align 1
@.str.7 = private unnamed_addr constant [61 x i8] c"EVMC ABI version %d of %s mismatches the expected version %d\00", align 1

; Function Attrs: inlinehint nounwind uwtable
define internal void @evmc_destroy(ptr noundef %0) #5 {
  %2 = alloca ptr, align 8
  store ptr %0, ptr %2, align 8, !tbaa !16
  %3 = load ptr, ptr %2, align 8, !tbaa !16
  %4 = getelementptr inbounds nuw %struct.evmc_vm, ptr %3, i32 0, i32 3
  %5 = load ptr, ptr %4, align 8, !tbaa !20
  %6 = load ptr, ptr %2, align 8, !tbaa !16
  call void %5(ptr noundef %6)
  ret void
}

; Function Attrs: inlinehint nounwind uwtable
define internal zeroext i1 @evmc_is_abi_compatible(ptr noundef %0) #5 {
  %2 = alloca ptr, align 8
  store ptr %0, ptr %2, align 8, !tbaa !16
  %3 = load ptr, ptr %2, align 8, !tbaa !16
  %4 = getelementptr inbounds nuw %struct.evmc_vm, ptr %3, i32 0, i32 0
  %5 = load i32, ptr %4, align 8, !tbaa !18
  %6 = icmp eq i32 %5, 12
  ret i1 %6
}

; Function Attrs: nounwind uwtable
define ptr @evmc_load_and_create(ptr noundef %0, ptr noundef %1) #0 {
  %3 = alloca ptr, align 8
  %4 = alloca ptr, align 8
  %5 = alloca ptr, align 8
  %6 = alloca ptr, align 8
  %7 = alloca i32, align 4
  %8 = alloca i32, align 4
  %9 = alloca ptr, align 8
  store ptr %0, ptr %4, align 8, !tbaa !3
  store ptr %1, ptr %5, align 8, !tbaa !8
  call void @llvm.lifetime.start.p0(ptr %6) #7
  %10 = load ptr, ptr %4, align 8, !tbaa !3
  %11 = load ptr, ptr %5, align 8, !tbaa !8
  %12 = call ptr @evmc_load(ptr noundef %10, ptr noundef %11)
  store ptr %12, ptr %6, align 8, !tbaa !8
  %13 = load ptr, ptr %6, align 8, !tbaa !8
  %14 = icmp ne ptr %13, null
  br i1 %14, label %16, label %15

15:                                               ; preds = %2
  store ptr null, ptr %3, align 8
  store i32 1, ptr %7, align 4
  br label %43

16:                                               ; preds = %2
  call void @llvm.lifetime.start.p0(ptr %8) #7
  store i32 0, ptr %8, align 4, !tbaa !9
  call void @llvm.lifetime.start.p0(ptr %9) #7
  %17 = load ptr, ptr %6, align 8, !tbaa !8
  %18 = call ptr %17()
  store ptr %18, ptr %9, align 8, !tbaa !16
  %19 = load ptr, ptr %9, align 8, !tbaa !16
  %20 = icmp ne ptr %19, null
  br i1 %20, label %24, label %21

21:                                               ; preds = %16
  %22 = load ptr, ptr %4, align 8, !tbaa !3
  %23 = call i32 (i32, ptr, ...) @set_error(i32 noundef 4, ptr noundef @.str.6, ptr noundef %22)
  store i32 %23, ptr %8, align 4, !tbaa !9
  br label %35

24:                                               ; preds = %16
  %25 = load ptr, ptr %9, align 8, !tbaa !16
  %26 = call zeroext i1 @evmc_is_abi_compatible(ptr noundef %25)
  br i1 %26, label %34, label %27

27:                                               ; preds = %24
  %28 = load ptr, ptr %9, align 8, !tbaa !16
  %29 = getelementptr inbounds nuw %struct.evmc_vm, ptr %28, i32 0, i32 0
  %30 = load i32, ptr %29, align 8, !tbaa !18
  %31 = load ptr, ptr %4, align 8, !tbaa !3
  %32 = call i32 (i32, ptr, ...) @set_error(i32 noundef 5, ptr noundef @.str.7, i32 noundef %30, ptr noundef %31, i32 noundef 12)
  store i32 %32, ptr %8, align 4, !tbaa !9
  %33 = load ptr, ptr %9, align 8, !tbaa !16
  call void @evmc_destroy(ptr noundef %33)
  store ptr null, ptr %9, align 8, !tbaa !16
  br label %35

34:                                               ; preds = %24
  br label %35

35:                                               ; preds = %34, %27, %21
  %36 = load ptr, ptr %5, align 8, !tbaa !8
  %37 = icmp ne ptr %36, null
  br i1 %37, label %38, label %41

38:                                               ; preds = %35
  %39 = load i32, ptr %8, align 4, !tbaa !9
  %40 = load ptr, ptr %5, align 8, !tbaa !8
  store i32 %39, ptr %40, align 4, !tbaa !9
  br label %41

41:                                               ; preds = %38, %35
  %42 = load ptr, ptr %9, align 8, !tbaa !16
  store ptr %42, ptr %3, align 8
  store i32 1, ptr %7, align 4
  call void @llvm.lifetime.end.p0(ptr %9) #7
  call void @llvm.lifetime.end.p0(ptr %8) #7
  br label %43

43:                                               ; preds = %41, %15
  call void @llvm.lifetime.end.p0(ptr %6) #7
  %44 = load ptr, ptr %3, align 8
  ret ptr %44
}