; Function Attrs: nounwind uwtable
define ptr @evmc_load_and_create(ptr noundef %0, ptr noundef writeonly captures(address_is_null) %1) local_unnamed_addr #0 {
  %3 = tail call ptr @evmc_load(ptr noundef %0, ptr noundef %1)
  %.not = icmp eq ptr %3, null
  br i1 %.not, label %16, label %4

4:                                                ; preds = %2
  %5 = tail call ptr %3() #10
  %.not19 = icmp eq ptr %5, null
  br i1 %.not19, label %6, label %8

6:                                                ; preds = %4
  %7 = tail call i32 (i32, ptr, ...) @set_error(i32 noundef 4, ptr noundef nonnull @.str.6, ptr noundef %0)
  br label %14

8:                                                ; preds = %4
  %.val = load i32, ptr %5, align 8, !tbaa !13
  %9 = icmp eq i32 %.val, 12
  br i1 %9, label %14, label %10

10:                                               ; preds = %8
  %11 = tail call i32 (i32, ptr, ...) @set_error(i32 noundef 5, ptr noundef nonnull @.str.7, i32 noundef %.val, ptr noundef %0, i32 noundef 12)
  %12 = getelementptr inbounds nuw i8, ptr %5, i64 24
  %13 = load ptr, ptr %12, align 8, !tbaa !15
  tail call void %13(ptr noundef nonnull %5) #10
  br label %14

14:                                               ; preds = %8, %10, %6
  %.014 = phi i32 [ 0, %8 ], [ 5, %10 ], [ 4, %6 ]
  %.0 = phi ptr [ %5, %8 ], [ null, %10 ], [ null, %6 ]
  %.not20 = icmp eq ptr %1, null
  br i1 %.not20, label %16, label %15

15:                                               ; preds = %14
  store i32 %.014, ptr %1, align 4, !tbaa !11
  br label %16

16:                                               ; preds = %14, %15, %2
  %.015 = phi ptr [ null, %2 ], [ %.0, %15 ], [ %.0, %14 ]
  ret ptr %.015
}